; Function Attrs: nounwind uwtable
define hidden i32 @drsuapi_dissect_struct_DsReplicaGetInfoRequest2(ptr noundef %0, i32 noundef %1, ptr noundef %2, ptr noundef %3, ptr noundef %4, ptr noundef %5, i32 noundef %6, i32 %7) local_unnamed_addr #0 {
  %9 = alloca i32, align 4
  %10 = getelementptr inbounds nuw i8, ptr %4, i64 72
  %11 = load ptr, ptr %10, align 8
  %12 = getelementptr inbounds nuw i8, ptr %11, i64 96
  %13 = load i32, ptr %12, align 8
  %14 = and i32 %13, 1
  %.not = icmp eq i32 %14, 0
  %15 = getelementptr inbounds nuw i8, ptr %4, i64 28
  %16 = load i32, ptr %15, align 4
  %.not70 = icmp ne i32 %16, 0
  br i1 %.not, label %22, label %17

17:                                               ; preds = %8
  %18 = and i32 %1, 7
  %.not73 = icmp eq i32 %18, 0
  %or.cond = or i1 %.not73, %.not70
  br i1 %or.cond, label %27, label %19

19:                                               ; preds = %17
  %20 = and i32 %1, -8
  %21 = add i32 %20, 8
  br label %27

22:                                               ; preds = %8
  %23 = and i32 %1, 3
  %.not71 = icmp eq i32 %23, 0
  %or.cond78 = or i1 %.not71, %.not70
  br i1 %or.cond78, label %27, label %24

24:                                               ; preds = %22
  %25 = and i32 %1, -4
  %26 = add i32 %25, 4
  br label %27

27:                                               ; preds = %22, %24, %17, %19
  %.0 = phi i32 [ %1, %17 ], [ %21, %19 ], [ %1, %22 ], [ %26, %24 ]
  %.not74 = icmp eq ptr %3, null
  br i1 %.not74, label %32, label %28

28:                                               ; preds = %27
  %29 = tail call ptr @proto_tree_add_item(ptr noundef nonnull %3, i32 noundef %6, ptr noundef %0, i32 noundef %.0, i32 noundef -1, i32 noundef 0) #5
  %30 = load i32, ptr @ett_drsuapi_drsuapi_DsReplicaGetInfoRequest2, align 4
  %31 = tail call ptr @proto_item_add_subtree(ptr noundef %29, i32 noundef %30) #5
  br label %32

32:                                               ; preds = %28, %27
  %.068 = phi ptr [ %29, %28 ], [ null, %27 ]
  %.067 = phi ptr [ %31, %28 ], [ null, %27 ]
  %33 = load i32, ptr @hf_drsuapi_drsuapi_DsReplicaGetInfoRequest2_info_type, align 4
  call void @llvm.lifetime.start.p0(i64 4, ptr nonnull %9)
  store i32 0, ptr %9, align 4
  %34 = call i32 @dissect_ndr_uint32(ptr noundef %0, i32 noundef %.0, ptr noundef %2, ptr noundef %.067, ptr noundef nonnull %4, ptr noundef %5, i32 noundef %33, ptr noundef nonnull %9) #5
  call void @llvm.lifetime.end.p0(i64 4, ptr nonnull %9)
  %35 = load i32, ptr @hf_drsuapi_drsuapi_DsReplicaGetInfoRequest2_object_dn, align 4
  %36 = call i32 @dissect_ndr_embedded_pointer(ptr noundef %0, i32 noundef %34, ptr noundef %2, ptr noundef %.067, ptr noundef nonnull %4, ptr noundef %5, ptr noundef nonnull @drsuapi_dissect_element_DsReplicaGetInfoRequest2_object_dn_, i32 noundef 2, ptr noundef nonnull @.str.1471, i32 noundef %35) #5
  %37 = load i32, ptr @hf_drsuapi_drsuapi_DsReplicaGetInfoRequest2_source_dsa_guid, align 4
  %38 = call i32 @dissect_ndr_uuid_t(ptr noundef %0, i32 noundef %36, ptr noundef %2, ptr noundef %.067, ptr noundef nonnull %4, ptr noundef %5, i32 noundef %37, ptr noundef null) #5
  %39 = load i32, ptr @hf_drsuapi_drsuapi_DsReplicaGetInfoRequest2_flags, align 4
  %40 = call i32 @PIDL_dissect_uint32(ptr noundef %0, i32 noundef %38, ptr noundef %2, ptr noundef %.067, ptr noundef nonnull %4, ptr noundef %5, i32 noundef %39, i32 noundef 0) #5
  %41 = load i32, ptr @hf_drsuapi_drsuapi_DsReplicaGetInfoRequest2_attribute_name, align 4
  %42 = call i32 @dissect_ndr_embedded_pointer(ptr noundef %0, i32 noundef %40, ptr noundef %2, ptr noundef %.067, ptr noundef nonnull %4, ptr noundef %5, ptr noundef nonnull @drsuapi_dissect_element_DsReplicaGetInfoRequest2_attribute_name_, i32 noundef 2, ptr noundef nonnull @.str.1502, i32 noundef %41) #5
  %43 = load i32, ptr @hf_drsuapi_drsuapi_DsReplicaGetInfoRequest2_value_dn_str, align 4
  %44 = call i32 @dissect_ndr_embedded_pointer(ptr noundef %0, i32 noundef %42, ptr noundef %2, ptr noundef %.067, ptr noundef nonnull %4, ptr noundef %5, ptr noundef nonnull @drsuapi_dissect_element_DsReplicaGetInfoRequest2_value_dn_str_, i32 noundef 2, ptr noundef nonnull @.str.1503, i32 noundef %43) #5
  %45 = load i32, ptr @hf_drsuapi_drsuapi_DsReplicaGetInfoRequest2_enumeration_context, align 4
  %46 = call i32 @PIDL_dissect_uint32(ptr noundef %0, i32 noundef %44, ptr noundef %2, ptr noundef %.067, ptr noundef nonnull %4, ptr noundef %5, i32 noundef %45, i32 noundef 0) #5
  %47 = sub i32 %46, %.0
  call void @proto_item_set_len(ptr noundef %.068, i32 noundef %47) #5
  %48 = load ptr, ptr %10, align 8
  %49 = getelementptr inbounds nuw i8, ptr %48, i64 96
  %50 = load i32, ptr %49, align 8
  %51 = and i32 %50, 1
  %.not75 = icmp eq i32 %51, 0
  br i1 %.not75, label %59, label %52

52:                                               ; preds = %32
  %53 = getelementptr inbounds nuw i8, ptr %4, i64 28
  %54 = load i32, ptr %53, align 4
  %.not76 = icmp ne i32 %54, 0
  %55 = and i32 %46, 7
  %.not77 = icmp eq i32 %55, 0
  %or.cond79 = or i1 %.not77, %.not76
  br i1 %or.cond79, label %59, label %56

56:                                               ; preds = %52
  %57 = and i32 %46, -8
  %58 = add i32 %57, 8
  br label %59

59:                                               ; preds = %56, %52, %32
  %.1 = phi i32 [ %46, %52 ], [ %58, %56 ], [ %46, %32 ]
  ret i32 %.1
}